; Function Attrs: nofree norecurse nosync nounwind memory(read, inaccessiblemem: none) uwtable
define i32 @Ssw_MatchingCountUnmached(ptr noundef readonly captures(none) %0) local_unnamed_addr #5 {
  %2 = getelementptr inbounds nuw i8, ptr %0, i64 32
  %3 = load ptr, ptr %2, align 8, !tbaa !28
  %4 = getelementptr i8, ptr %3, i64 4
  %.val14 = load i32, ptr %4, align 4, !tbaa !44
  %5 = icmp sgt i32 %.val14, 0
  br i1 %5, label %.lr.ph, label %.critedge

.lr.ph:                                           ; preds = %1
  %6 = getelementptr i8, ptr %3, i64 8
  %.val = load ptr, ptr %6, align 8, !tbaa !30
  %wide.trip.count = zext nneg i32 %.val14 to i64
  br label %7

7:                                                ; preds = %.lr.ph, %21
  %indvars.iv = phi i64 [ 0, %.lr.ph ], [ %indvars.iv.next, %21 ]
  %.018 = phi i32 [ 0, %.lr.ph ], [ %.1, %21 ]
  %8 = getelementptr inbounds nuw ptr, ptr %.val, i64 %indvars.iv
  %9 = load ptr, ptr %8, align 8, !tbaa !32
  %10 = icmp eq ptr %9, null
  br i1 %10, label %21, label %11

11:                                               ; preds = %7
  %12 = getelementptr i8, ptr %9, i64 24
  %.val16 = load i64, ptr %12, align 8
  %13 = trunc i64 %.val16 to i32
  %14 = and i32 %13, 7
  %15 = add nsw i32 %14, -5
  %narrow.i = icmp ult i32 %15, 2
  %16 = and i64 %.val16, 7
  %.not = icmp eq i64 %16, 2
  %or.cond = or i1 %.not, %narrow.i
  br i1 %or.cond, label %17, label %21

17:                                               ; preds = %11
  %18 = getelementptr inbounds nuw i8, ptr %9, i64 40
  %19 = load ptr, ptr %18, align 8, !tbaa !3
  %.not13 = icmp eq ptr %19, null
  %20 = zext i1 %.not13 to i32
  %spec.select = add nsw i32 %.018, %20
  br label %21

21:                                               ; preds = %11, %17, %7
  %.1 = phi i32 [ %.018, %7 ], [ %spec.select, %17 ], [ %.018, %11 ]
  %indvars.iv.next = add nuw nsw i64 %indvars.iv, 1
  %exitcond.not = icmp eq i64 %indvars.iv.next, %wide.trip.count
  br i1 %exitcond.not, label %.critedge, label %7, !llvm.loop !55

.critedge:                                        ; preds = %21, %1
  %.0.lcssa = phi i32 [ 0, %1 ], [ %.1, %21 ]
  ret i32 %.0.lcssa
}